; Function Attrs: nounwind uwtable
define noalias noundef nonnull ptr @l___private_Lean_Meta_Tactic_Grind_Cases_0__Lean_Meta_Grind_getAlias_x3f___lambda__1___boxed(ptr noundef %0, ptr noundef %1, ptr noundef %2, ptr noundef %3, ptr noundef %4, ptr noundef %5, ptr noundef %6) #1 {
  %8 = tail call ptr @l___private_Lean_Meta_Tactic_Grind_Cases_0__Lean_Meta_Grind_getAlias_x3f___lambda__1(ptr poison, ptr noundef %1, ptr poison, ptr poison, ptr poison, ptr poison, ptr noundef %6)
  %9 = ptrtoint ptr %5 to i64
  %10 = and i64 %9, 1
  %.not = icmp eq i64 %10, 0
  br i1 %.not, label %11, label %lean_dec.exit18

11:                                               ; preds = %7
  %12 = load i32, ptr %5, align 4, !tbaa !4
  %13 = icmp sgt i32 %12, 1
  br i1 %13, label %14, label %16, !prof !11

14:                                               ; preds = %11
  %15 = add nsw i32 %12, -1
  store i32 %15, ptr %5, align 4, !tbaa !4
  br label %lean_dec.exit18

16:                                               ; preds = %11
  %.not.i = icmp eq i32 %12, 0
  br i1 %.not.i, label %lean_dec.exit18, label %17

17:                                               ; preds = %16
  tail call void @lean_dec_ref_cold(ptr noundef nonnull %5) #6
  br label %lean_dec.exit18

lean_dec.exit18:                                  ; preds = %17, %16, %14, %7
  %18 = ptrtoint ptr %4 to i64
  %19 = and i64 %18, 1
  %.not29 = icmp eq i64 %19, 0
  br i1 %.not29, label %20, label %lean_dec.exit17

20:                                               ; preds = %lean_dec.exit18
  %21 = load i32, ptr %4, align 4, !tbaa !4
  %22 = icmp sgt i32 %21, 1
  br i1 %22, label %23, label %25, !prof !11

23:                                               ; preds = %20
  %24 = add nsw i32 %21, -1
  store i32 %24, ptr %4, align 4, !tbaa !4
  br label %lean_dec.exit17

25:                                               ; preds = %20
  %.not.i19 = icmp eq i32 %21, 0
  br i1 %.not.i19, label %lean_dec.exit17, label %26

26:                                               ; preds = %25
  tail call void @lean_dec_ref_cold(ptr noundef nonnull %4) #6
  br label %lean_dec.exit17

lean_dec.exit17:                                  ; preds = %26, %25, %23, %lean_dec.exit18
  %27 = ptrtoint ptr %3 to i64
  %28 = and i64 %27, 1
  %.not30 = icmp eq i64 %28, 0
  br i1 %.not30, label %29, label %lean_dec.exit16

29:                                               ; preds = %lean_dec.exit17
  %30 = load i32, ptr %3, align 4, !tbaa !4
  %31 = icmp sgt i32 %30, 1
  br i1 %31, label %32, label %34, !prof !11

32:                                               ; preds = %29
  %33 = add nsw i32 %30, -1
  store i32 %33, ptr %3, align 4, !tbaa !4
  br label %lean_dec.exit16

34:                                               ; preds = %29
  %.not.i21 = icmp eq i32 %30, 0
  br i1 %.not.i21, label %lean_dec.exit16, label %35

35:                                               ; preds = %34
  tail call void @lean_dec_ref_cold(ptr noundef nonnull %3) #6
  br label %lean_dec.exit16

lean_dec.exit16:                                  ; preds = %35, %34, %32, %lean_dec.exit17
  %36 = ptrtoint ptr %2 to i64
  %37 = and i64 %36, 1
  %.not31 = icmp eq i64 %37, 0
  br i1 %.not31, label %38, label %lean_dec.exit15

38:                                               ; preds = %lean_dec.exit16
  %39 = load i32, ptr %2, align 4, !tbaa !4
  %40 = icmp sgt i32 %39, 1
  br i1 %40, label %41, label %43, !prof !11

41:                                               ; preds = %38
  %42 = add nsw i32 %39, -1
  store i32 %42, ptr %2, align 4, !tbaa !4
  br label %lean_dec.exit15

43:                                               ; preds = %38
  %.not.i23 = icmp eq i32 %39, 0
  br i1 %.not.i23, label %lean_dec.exit15, label %44

44:                                               ; preds = %43
  tail call void @lean_dec_ref_cold(ptr noundef nonnull %2) #6
  br label %lean_dec.exit15

lean_dec.exit15:                                  ; preds = %44, %43, %41, %lean_dec.exit16
  %45 = ptrtoint ptr %1 to i64
  %46 = and i64 %45, 1
  %.not32 = icmp eq i64 %46, 0
  br i1 %.not32, label %47, label %lean_dec.exit14

47:                                               ; preds = %lean_dec.exit15
  %48 = load i32, ptr %1, align 4, !tbaa !4
  %49 = icmp sgt i32 %48, 1
  br i1 %49, label %50, label %52, !prof !11

50:                                               ; preds = %47
  %51 = add nsw i32 %48, -1
  store i32 %51, ptr %1, align 4, !tbaa !4
  br label %lean_dec.exit14

52:                                               ; preds = %47
  %.not.i25 = icmp eq i32 %48, 0
  br i1 %.not.i25, label %lean_dec.exit14, label %53

53:                                               ; preds = %52
  tail call void @lean_dec_ref_cold(ptr noundef nonnull %1) #6
  br label %lean_dec.exit14

lean_dec.exit14:                                  ; preds = %53, %52, %50, %lean_dec.exit15
  %54 = ptrtoint ptr %0 to i64
  %55 = and i64 %54, 1
  %.not33 = icmp eq i64 %55, 0
  br i1 %.not33, label %56, label %lean_dec.exit

56:                                               ; preds = %lean_dec.exit14
  %57 = load i32, ptr %0, align 4, !tbaa !4
  %58 = icmp sgt i32 %57, 1
  br i1 %58, label %59, label %61, !prof !11

59:                                               ; preds = %56
  %60 = add nsw i32 %57, -1
  store i32 %60, ptr %0, align 4, !tbaa !4
  br label %lean_dec.exit

61:                                               ; preds = %56
  %.not.i27 = icmp eq i32 %57, 0
  br i1 %.not.i27, label %lean_dec.exit, label %62

62:                                               ; preds = %61
  tail call void @lean_dec_ref_cold(ptr noundef nonnull %0) #6
  br label %lean_dec.exit

lean_dec.exit:                                    ; preds = %62, %61, %59, %lean_dec.exit14
  ret ptr %8
}